target datalayout = "e-m:e-p270:32:32-p271:32:32-p272:64:64-i64:64-i128:128-f80:128-n8:16:32:64-S128"
target triple = "x86_64-pc-linux-gnu"

%struct.H5VL_dyn_op_t = type { ptr, i32 }

@H5VL_init_g = external global i8, align 1
@H5_libterm_g = external global i8, align 1
@H5_H5VL_dyn_op_t_reg_free_list = internal global { i8, [3 x i8], i32, i32, [4 x i8], ptr, i64, ptr } { i8 0, [3 x i8] zeroinitializer, i32 0, i32 0, [4 x i8] zeroinitializer, ptr @.str.8, i64 16, ptr null }, align 8

; Function Attrs: nounwind uwtable
define internal void @H5VL__release_dyn_op(ptr noundef %0) #0 {
  %2 = alloca ptr, align 8
  store ptr %0, ptr %2, align 8, !tbaa !17
  %3 = load i8, ptr @H5VL_init_g, align 1, !tbaa !3, !range !7, !noundef !8
  %4 = trunc i8 %3 to i1
  br i1 %4, label %9, label %5

5:                                                ; preds = %1
  %6 = load i8, ptr @H5_libterm_g, align 1, !tbaa !3, !range !7, !noundef !8
  %7 = trunc i8 %6 to i1
  %8 = xor i1 %7, true
  br label %9

9:                                                ; preds = %5, %1
  %10 = phi i1 [ true, %1 ], [ %8, %5 ]
  %11 = xor i1 %10, true
  %12 = xor i1 %11, true
  %13 = zext i1 %12 to i32
  %14 = sext i32 %13 to i64
  %15 = call i64 @llvm.expect.i64(i64 %14, i64 1)
  %16 = icmp ne i64 %15, 0
  br i1 %16, label %17, label %24

17:                                               ; preds = %9
  %18 = load ptr, ptr %2, align 8, !tbaa !17
  %19 = getelementptr inbounds nuw %struct.H5VL_dyn_op_t, ptr %18, i32 0, i32 0
  %20 = load ptr, ptr %19, align 8, !tbaa !25
  %21 = call ptr @H5MM_xfree(ptr noundef %20)
  %22 = load ptr, ptr %2, align 8, !tbaa !17
  %23 = call ptr @H5FL_reg_free(ptr noundef @H5_H5VL_dyn_op_t_reg_free_list, ptr noundef %22)
  br label %24

24:                                               ; preds = %17, %9
  ret void
}

; Function Attrs: nounwind uwtable
define internal i32 @H5VL__term_opt_operation_cb(ptr noundef %0, ptr noundef %1, ptr noundef %2) #0 {
  %4 = alloca ptr, align 8
  %5 = alloca ptr, align 8
  %6 = alloca ptr, align 8
  %7 = alloca ptr, align 8
  store ptr %0, ptr %4, align 8, !tbaa !16
  store ptr %1, ptr %5, align 8, !tbaa !16
  store ptr %2, ptr %6, align 8, !tbaa !16
  call void @llvm.lifetime.start.p0(i64 8, ptr %7) #4
  %8 = load ptr, ptr %4, align 8, !tbaa !16
  store ptr %8, ptr %7, align 8, !tbaa !17
  %9 = load i8, ptr @H5VL_init_g, align 1, !tbaa !3, !range !7, !noundef !8
  %10 = trunc i8 %9 to i1
  br i1 %10, label %15, label %11

11:                                               ; preds = %3
  %12 = load i8, ptr @H5_libterm_g, align 1, !tbaa !3, !range !7, !noundef !8
  %13 = trunc i8 %12 to i1
  %14 = xor i1 %13, true
  br label %15

15:                                               ; preds = %11, %3
  %16 = phi i1 [ true, %3 ], [ %14, %11 ]
  %17 = xor i1 %16, true
  %18 = xor i1 %17, true
  %19 = zext i1 %18 to i32
  %20 = sext i32 %19 to i64
  %21 = call i64 @llvm.expect.i64(i64 %20, i64 1)
  %22 = icmp ne i64 %21, 0
  br i1 %22, label %23, label %25

23:                                               ; preds = %15
  %24 = load ptr, ptr %7, align 8, !tbaa !17
  call void @H5VL__release_dyn_op(ptr noundef %24)
  br label %25

25:                                               ; preds = %23, %15
  call void @llvm.lifetime.end.p0(i64 8, ptr %7) #4
  ret i32 0
}