; Function Attrs: nounwind uwtable
define internal noundef i32 @H5VL__term_opt_operation_cb(ptr noundef %0, ptr readnone captures(none) %1, ptr readnone captures(none) %2) #0 {
  %4 = load i8, ptr @H5VL_init_g, align 1, !tbaa !3, !range !7, !noundef !8
  %5 = trunc nuw i8 %4 to i1
  %6 = load i8, ptr @H5_libterm_g, align 1, !range !7
  %7 = trunc nuw i8 %6 to i1
  %8 = xor i1 %7, true
  %9 = select i1 %5, i1 true, i1 %8
  br i1 %9, label %H5VL__release_dyn_op.exit, label %13, !prof !9

H5VL__release_dyn_op.exit:                        ; preds = %3
  %10 = load ptr, ptr %0, align 8, !tbaa !15
  %11 = tail call ptr @H5MM_xfree(ptr noundef %10) #2
  %12 = tail call ptr @H5FL_reg_free(ptr noundef nonnull @H5_H5VL_dyn_op_t_reg_free_list, ptr noundef nonnull %0) #2
  br label %13

13:                                               ; preds = %H5VL__release_dyn_op.exit, %3
  ret i32 0
}